; Function Attrs: mustprogress uwtable
define noundef zeroext i1 @_ZN6google8protobuf8compiler14DiskSourceTree21VirtualFileToDiskFileESt17basic_string_viewIcSt11char_traitsIcEEPNSt7__cxx1112basic_stringIcS5_SaIcEEE(ptr noundef nonnull align 8 dereferenceable(64) %this, i64 %virtual_file.coerce0, ptr %virtual_file.coerce1, ptr noundef %disk_file) local_unnamed_addr #6 align 2 personality ptr @__gxx_personality_v0 {
entry:
  %call = tail call noundef ptr @_ZN6google8protobuf8compiler14DiskSourceTree15OpenVirtualFileESt17basic_string_viewIcSt11char_traitsIcEEPNSt7__cxx1112basic_stringIcS5_SaIcEEE(ptr noundef nonnull align 8 dereferenceable(64) %this, i64 %virtual_file.coerce0, ptr %virtual_file.coerce1, ptr noundef %disk_file)
  %cmp.not.i = icmp eq ptr %call, null
  br i1 %cmp.not.i, label %_ZNSt10unique_ptrIN6google8protobuf2io19ZeroCopyInputStreamESt14default_deleteIS3_EED2Ev.exit, label %_ZNKSt14default_deleteIN6google8protobuf2io19ZeroCopyInputStreamEEclEPS3_.exit.i

_ZNKSt14default_deleteIN6google8protobuf2io19ZeroCopyInputStreamEEclEPS3_.exit.i: ; preds = %entry
  %vtable.i.i = load ptr, ptr %call, align 8
  %vfn.i.i = getelementptr inbounds i8, ptr %vtable.i.i, i64 8
  %0 = load ptr, ptr %vfn.i.i, align 8
  tail call void %0(ptr noundef nonnull align 8 dereferenceable(8) %call) #25
  br label %_ZNSt10unique_ptrIN6google8protobuf2io19ZeroCopyInputStreamESt14default_deleteIS3_EED2Ev.exit

_ZNSt10unique_ptrIN6google8protobuf2io19ZeroCopyInputStreamESt14default_deleteIS3_EED2Ev.exit: ; preds = %entry, %_ZNKSt14default_deleteIN6google8protobuf2io19ZeroCopyInputStreamEEclEPS3_.exit.i
  %cmp.i.i = icmp ne ptr %call, null
  ret i1 %cmp.i.i
}